; ModuleID = '56/1983.c'
source_filename = "56/1983.c"
target datalayout = "e-m:e-p270:32:32-p271:32:32-p272:64:64-i64:64-f80:128-n8:16:32:64-S128"
target triple = "x86_64-pc-linux-gnu"

@.str = private unnamed_addr constant [3 x i8] c"%d\00", align 1

; Function Attrs: noinline nounwind uwtable
define dso_local void @main() #0 {
  %1 = alloca i32, align 4
  %2 = alloca i32, align 4
  %3 = alloca i32, align 4
  %4 = alloca i32, align 4
  %5 = alloca i32, align 4
  %6 = alloca i32, align 4
  %7 = alloca i32, align 4
  %8 = call i32 (i8*, ...) @__isoc99_scanf(i8* getelementptr inbounds ([3 x i8], [3 x i8]* @.str, i64 0, i64 0), i32* %1)
  store i32 1, i32* %2, align 4
  br label %9

9:                                                ; preds = %30, %0
  %10 = load i32, i32* %2, align 4
  %11 = icmp sle i32 %10, 5
  br i1 %11, label %12, label %33

12:                                               ; preds = %9
  store i32 1, i32* %5, align 4
  store i32 1, i32* %4, align 4
  br label %13

13:                                               ; preds = %20, %12
  %14 = load i32, i32* %4, align 4
  %15 = load i32, i32* %2, align 4
  %16 = icmp sle i32 %14, %15
  br i1 %16, label %17, label %23

17:                                               ; preds = %13
  %18 = load i32, i32* %5, align 4
  %19 = mul nsw i32 %18, 10
  store i32 %19, i32* %5, align 4
  br label %20

20:                                               ; preds = %17
  %21 = load i32, i32* %4, align 4
  %22 = add nsw i32 %21, 1
  store i32 %22, i32* %4, align 4
  br label %13

23:                                               ; preds = %13
  %24 = load i32, i32* %1, align 4
  %25 = load i32, i32* %5, align 4
  %26 = sdiv i32 %24, %25
  %27 = icmp sge i32 %26, 10
  br i1 %27, label %28, label %29

28:                                               ; preds = %23
  br label %30

29:                                               ; preds = %23
  br label %33

30:                                               ; preds = %28
  %31 = load i32, i32* %2, align 4
  %32 = add nsw i32 %31, 1
  store i32 %32, i32* %2, align 4
  br label %9

33:                                               ; preds = %29, %9
  store i32 1, i32* %3, align 4
  br label %34

34:                                               ; preds = %62, %33
  %35 = load i32, i32* %3, align 4
  %36 = load i32, i32* %2, align 4
  %37 = icmp sle i32 %35, %36
  br i1 %37, label %38, label %65

38:                                               ; preds = %34
  store i32 1, i32* %6, align 4
  store i32 1, i32* %4, align 4
  br label %39

39:                                               ; preds = %46, %38
  %40 = load i32, i32* %4, align 4
  %41 = load i32, i32* %3, align 4
  %42 = icmp sle i32 %40, %41
  br i1 %42, label %43, label %49

43:                                               ; preds = %39
  %44 = load i32, i32* %6, align 4
  %45 = mul nsw i32 %44, 10
  store i32 %45, i32* %6, align 4
  br label %46

46:                                               ; preds = %43
  %47 = load i32, i32* %4, align 4
  %48 = add nsw i32 %47, 1
  store i32 %48, i32* %4, align 4
  br label %39

49:                                               ; preds = %39
  %50 = load i32, i32* %1, align 4
  %51 = load i32, i32* %6, align 4
  %52 = srem i32 %50, %51
  %53 = load i32, i32* %1, align 4
  %54 = load i32, i32* %6, align 4
  %55 = sdiv i32 %54, 10
  %56 = srem i32 %53, %55
  %57 = sub nsw i32 %52, %56
  %58 = load i32, i32* %6, align 4
  %59 = sdiv i32 %58, 10
  %60 = sdiv i32 %57, %59
  %61 = call i32 (i8*, ...) @printf(i8* getelementptr inbounds ([3 x i8], [3 x i8]* @.str, i64 0, i64 0), i32 %60)
  br label %62

62:                                               ; preds = %49
  %63 = load i32, i32* %3, align 4
  %64 = add nsw i32 %63, 1
  store i32 %64, i32* %3, align 4
  br label %34

65:                                               ; preds = %34
  %66 = load i32, i32* %1, align 4
  %67 = icmp sge i32 %66, 10
  br i1 %67, label %68, label %84

68:                                               ; preds = %65
  store i32 1, i32* %7, align 4
  store i32 1, i32* %4, align 4
  br label %69

69:                                               ; preds = %76, %68
  %70 = load i32, i32* %4, align 4
  %71 = load i32, i32* %2, align 4
  %72 = icmp sle i32 %70, %71
  br i1 %72, label %73, label %79

73:                                               ; preds = %69
  %74 = load i32, i32* %7, align 4
  %75 = mul nsw i32 %74, 10
  store i32 %75, i32* %7, align 4
  br label %76

76:                                               ; preds = %73
  %77 = load i32, i32* %4, align 4
  %78 = add nsw i32 %77, 1
  store i32 %78, i32* %4, align 4
  br label %69

79:                                               ; preds = %69
  %80 = load i32, i32* %1, align 4
  %81 = load i32, i32* %7, align 4
  %82 = sdiv i32 %80, %81
  %83 = call i32 (i8*, ...) @printf(i8* getelementptr inbounds ([3 x i8], [3 x i8]* @.str, i64 0, i64 0), i32 %82)
  br label %84

84:                                               ; preds = %79, %65
  ret void
}

declare dso_local i32 @__isoc99_scanf(i8*, ...) #1

declare dso_local i32 @printf(i8*, ...) #1


!llvm.module.flags = !{!0}
!llvm.ident = !{!1}

!0 = !{i32 1, !"wchar_size", i32 4}
!1 = !{!"clang version 10.0.0-4ubuntu1 "}
